; Function Attrs: nounwind uwtable
define ptr @Fra_LcrCreatePart(ptr noundef readonly captures(none) %0, ptr noundef readonly captures(none) %1) local_unnamed_addr #2 {
  %3 = load ptr, ptr %0, align 8
  %4 = tail call ptr @Aig_ManStartFrom(ptr noundef %3) #18
  %5 = load ptr, ptr %0, align 8
  tail call void @Aig_ManIncrementTravId(ptr noundef %5) #18
  %6 = load ptr, ptr %0, align 8
  %7 = getelementptr i8, ptr %6, i64 48
  %.val28 = load ptr, ptr %7, align 8
  %8 = getelementptr i8, ptr %6, i64 312
  %.val32 = load i32, ptr %8, align 8
  %9 = getelementptr inbounds nuw i8, ptr %.val28, i64 32
  store i32 %.val32, ptr %9, align 8
  %10 = getelementptr i8, ptr %4, i64 48
  %.val27 = load ptr, ptr %10, align 8
  %11 = load ptr, ptr %0, align 8
  %12 = getelementptr i8, ptr %11, i64 48
  %.val26 = load ptr, ptr %12, align 8
  %13 = getelementptr inbounds nuw i8, ptr %.val26, i64 40
  store ptr %.val27, ptr %13, align 8
  %14 = getelementptr i8, ptr %1, i64 4
  %.val3033 = load i32, ptr %14, align 4
  %15 = icmp sgt i32 %.val3033, 0
  br i1 %15, label %.lr.ph, label %.critedge

.lr.ph:                                           ; preds = %2
  %16 = getelementptr i8, ptr %1, i64 8
  %17 = getelementptr inbounds nuw i8, ptr %0, i64 8
  br label %18

18:                                               ; preds = %.lr.ph, %43
  %indvars.iv = phi i64 [ 0, %.lr.ph ], [ %indvars.iv.next, %43 ]
  %.val31 = load ptr, ptr %16, align 8
  %19 = getelementptr inbounds nuw i32, ptr %.val31, i64 %indvars.iv
  %20 = load i32, ptr %19, align 4
  %21 = load ptr, ptr %0, align 8
  %22 = getelementptr i8, ptr %21, i64 24
  %.val = load ptr, ptr %22, align 8
  %23 = getelementptr i8, ptr %.val, i64 8
  %.val.val = load ptr, ptr %23, align 8
  %24 = sext i32 %20 to i64
  %25 = getelementptr inbounds ptr, ptr %.val.val, i64 %24
  %26 = load ptr, ptr %25, align 8
  %27 = getelementptr inbounds nuw i8, ptr %26, i64 24
  %28 = load i64, ptr %27, align 8
  %29 = and i64 %28, 16
  %.not = icmp eq i64 %29, 0
  br i1 %.not, label %42, label %30

30:                                               ; preds = %18
  %31 = load ptr, ptr %17, align 8
  %32 = getelementptr i8, ptr %26, i64 8
  %.val24 = load ptr, ptr %32, align 8
  %33 = ptrtoint ptr %.val24 to i64
  %34 = and i64 %33, -2
  %35 = inttoptr i64 %34 to ptr
  %36 = tail call ptr @Fra_LcrCreatePart_rec(ptr noundef %31, ptr noundef %4, ptr noundef nonnull %21, ptr noundef %35)
  %.val29 = load ptr, ptr %32, align 8
  %37 = ptrtoint ptr %.val29 to i64
  %38 = and i64 %37, 1
  %39 = ptrtoint ptr %36 to i64
  %40 = xor i64 %38, %39
  %41 = inttoptr i64 %40 to ptr
  br label %43

42:                                               ; preds = %18
  %.val25 = load ptr, ptr %10, align 8
  br label %43

43:                                               ; preds = %42, %30
  %.023 = phi ptr [ %41, %30 ], [ %.val25, %42 ]
  %44 = tail call ptr @Aig_ObjCreateCo(ptr noundef %4, ptr noundef %.023) #18
  %indvars.iv.next = add nuw nsw i64 %indvars.iv, 1
  %.val30 = load i32, ptr %14, align 4
  %45 = sext i32 %.val30 to i64
  %46 = icmp slt i64 %indvars.iv.next, %45
  br i1 %46, label %18, label %.critedge, !llvm.loop !16

.critedge:                                        ; preds = %43, %2
  ret ptr %4
}